target datalayout = "e-m:e-p270:32:32-p271:32:32-p272:64:64-i64:64-i128:128-f80:128-n8:16:32:64-S128"
target triple = "x86_64-pc-linux-gnu"

@ett_ldp_tlv_val = internal global i32 0, align 4
@.str.1074 = private unnamed_addr constant [15 x i8] c"Explicit route\00", align 1

; Function Attrs: null_pointer_is_valid sspstrong uwtable
define internal void @dissect_tlv_er(ptr noundef %0, ptr noundef %1, i32 noundef %2, ptr noundef %3, i32 noundef %4) #0 {
  %6 = alloca ptr, align 8
  %7 = alloca ptr, align 8
  %8 = alloca i32, align 4
  %9 = alloca ptr, align 8
  %10 = alloca i32, align 4
  %11 = alloca ptr, align 8
  %12 = alloca i32, align 4
  store ptr %0, ptr %6, align 8
  store ptr %1, ptr %7, align 8
  store i32 %2, ptr %8, align 4
  store ptr %3, ptr %9, align 8
  store i32 %4, ptr %10, align 4
  call void @llvm.lifetime.start.p0(i64 8, ptr %11) #7
  call void @llvm.lifetime.start.p0(i64 4, ptr %12) #7
  %13 = load ptr, ptr %9, align 8
  %14 = load ptr, ptr %6, align 8
  %15 = load i32, ptr %8, align 4
  %16 = load i32, ptr %10, align 4
  %17 = load i32, ptr @ett_ldp_tlv_val, align 4
  %18 = call ptr @proto_tree_add_subtree(ptr noundef %13, ptr noundef %14, i32 noundef %15, i32 noundef %16, i32 noundef %17, ptr noundef null, ptr noundef @.str.1074)
  store ptr %18, ptr %11, align 8
  %19 = load ptr, ptr %11, align 8
  %20 = icmp ne ptr %19, null
  br i1 %20, label %21, label %39

21:                                               ; preds = %5
  br label %22

22:                                               ; preds = %25, %21
  %23 = load i32, ptr %10, align 4
  %24 = icmp sgt i32 %23, 0
  br i1 %24, label %25, label %38

25:                                               ; preds = %22
  %26 = load ptr, ptr %6, align 8
  %27 = load ptr, ptr %7, align 8
  %28 = load i32, ptr %8, align 4
  %29 = load ptr, ptr %11, align 8
  %30 = load i32, ptr %10, align 4
  %31 = call i32 @dissect_tlv(ptr noundef %26, ptr noundef %27, i32 noundef %28, ptr noundef %29, i32 noundef %30)
  store i32 %31, ptr %12, align 4
  %32 = load i32, ptr %12, align 4
  %33 = load i32, ptr %8, align 4
  %34 = add i32 %33, %32
  store i32 %34, ptr %8, align 4
  %35 = load i32, ptr %12, align 4
  %36 = load i32, ptr %10, align 4
  %37 = sub i32 %36, %35
  store i32 %37, ptr %10, align 4
  br label %22, !llvm.loop !23

38:                                               ; preds = %22
  br label %39

39:                                               ; preds = %38, %5
  call void @llvm.lifetime.end.p0(i64 4, ptr %12) #7
  call void @llvm.lifetime.end.p0(i64 8, ptr %11) #7
  ret void
}