; Function Attrs: null_pointer_is_valid sspstrong uwtable
define internal fastcc void @dissect_tlv_er(ptr noundef %0, ptr noundef %1, i32 noundef %2, ptr noundef %3, i32 noundef range(i32 0, 2147483644) %4) unnamed_addr #0 {
  %6 = load i32, ptr @ett_ldp_tlv_val, align 4
  %7 = tail call ptr @proto_tree_add_subtree(ptr noundef %3, ptr noundef %0, i32 noundef %2, i32 noundef %4, i32 noundef %6, ptr noundef null, ptr noundef nonnull @.str.1074)
  %8 = icmp ne ptr %7, null
  %9 = icmp ne i32 %4, 0
  %or.cond = and i1 %9, %8
  br i1 %or.cond, label %.preheader, label %.loopexit

.preheader:                                       ; preds = %5, %.preheader
  %.016 = phi i32 [ %12, %.preheader ], [ %4, %5 ]
  %.0 = phi i32 [ %11, %.preheader ], [ %2, %5 ]
  %10 = tail call fastcc i32 @dissect_tlv(ptr noundef %0, ptr noundef %1, i32 noundef %.0, ptr noundef nonnull %7, i32 noundef %.016)
  %11 = add i32 %10, %.0
  %12 = sub i32 %.016, %10
  %.old1 = icmp sgt i32 %12, 0
  br i1 %.old1, label %.preheader, label %.loopexit

.loopexit:                                        ; preds = %.preheader, %5
  ret void
}